; Function Attrs: null_pointer_is_valid sspstrong uwtable
define internal void @dtap_cc_release_complete(ptr noundef %0, ptr noundef %1, ptr noundef %2, i32 noundef %3, i32 noundef %4) #1 {
  store i1 false, ptr @is_uplink, align 4
  %6 = icmp slt i32 %4, 1
  br i1 %6, label %32, label %7

7:                                                ; preds = %5
  %8 = tail call zeroext i16 @elem_tlv(ptr noundef %0, ptr noundef %1, ptr noundef %2, i8 noundef zeroext 8, i32 noundef 1, i32 noundef 27, i32 noundef %3, i32 noundef %4, ptr noundef null)
  %9 = zext i16 %8 to i32
  %10 = sub nsw i32 %4, %9
  %11 = icmp slt i32 %10, 1
  br i1 %11, label %32, label %12

12:                                               ; preds = %7
  %13 = add i32 %3, %9
  %14 = tail call zeroext i16 @elem_tlv(ptr noundef %0, ptr noundef %1, ptr noundef %2, i8 noundef zeroext 28, i32 noundef 1, i32 noundef 33, i32 noundef %13, i32 noundef %10, ptr noundef null)
  %15 = zext i16 %14 to i32
  %16 = sub nsw i32 %10, %15
  %17 = icmp slt i32 %16, 1
  br i1 %17, label %32, label %18

18:                                               ; preds = %12
  %19 = add i32 %13, %15
  %20 = tail call zeroext i16 @elem_tlv(ptr noundef %0, ptr noundef %1, ptr noundef %2, i8 noundef zeroext 126, i32 noundef 1, i32 noundef 48, i32 noundef %19, i32 noundef %16, ptr noundef null)
  %21 = zext i16 %20 to i32
  %22 = sub nsw i32 %16, %21
  %23 = icmp slt i32 %22, 1
  br i1 %23, label %32, label %24

24:                                               ; preds = %18
  %25 = add i32 %19, %21
  %26 = tail call zeroext i16 @elem_tlv(ptr noundef %0, ptr noundef %1, ptr noundef %2, i8 noundef zeroext 127, i32 noundef 1, i32 noundef 47, i32 noundef %25, i32 noundef %22, ptr noundef null)
  %27 = zext i16 %26 to i32
  %.not61 = icmp eq i32 %22, %27
  br i1 %.not61, label %32, label %28

28:                                               ; preds = %24
  %29 = sub nsw i32 %22, %27
  %30 = add i32 %25, %27
  %31 = tail call ptr @proto_tree_add_expert(ptr noundef %1, ptr noundef %2, ptr noundef nonnull @ei_gsm_a_dtap_extraneous_data, ptr noundef %0, i32 noundef %30, i32 noundef %29)
  br label %32

32:                                               ; preds = %24, %28, %18, %12, %7, %5
  ret void
}